; Function Attrs: nounwind sspstrong uwtable
define dso_local range(i32 0, 2) i32 @bdrv_can_snapshot(ptr noundef %bs) local_unnamed_addr #0 {
entry:
  br label %tailrecurse

tailrecurse:                                      ; preds = %if.then8, %entry
  %bs.tr = phi ptr [ %bs, %entry ], [ %call9, %if.then8 ]
  %drv1 = getelementptr inbounds nuw i8, ptr %bs.tr, i64 16
  %0 = load ptr, ptr %drv1, align 8
  %call = tail call zeroext i1 @qemu_in_main_thread() #6
  br i1 %call, label %do.end, label %if.else

if.else:                                          ; preds = %tailrecurse
  tail call void @__assert_fail(ptr noundef nonnull @.str.6, ptr noundef nonnull @.str.7, i32 noundef 199, ptr noundef nonnull @__PRETTY_FUNCTION__.bdrv_can_snapshot) #7
  unreachable

do.end:                                           ; preds = %tailrecurse
  %tobool.not = icmp eq ptr %0, null
  br i1 %tobool.not, label %return, label %lor.lhs.false

lor.lhs.false:                                    ; preds = %do.end
  %call2 = tail call zeroext i1 @bdrv_is_inserted(ptr noundef nonnull %bs.tr) #6
  br i1 %call2, label %lor.lhs.false3, label %return

lor.lhs.false3:                                   ; preds = %lor.lhs.false
  %call4 = tail call zeroext i1 @bdrv_is_read_only(ptr noundef nonnull %bs.tr) #6
  br i1 %call4, label %return, label %if.end6

if.end6:                                          ; preds = %lor.lhs.false3
  %bdrv_snapshot_create = getelementptr inbounds nuw i8, ptr %0, i64 240
  %1 = load ptr, ptr %bdrv_snapshot_create, align 8
  %tobool7.not = icmp eq ptr %1, null
  br i1 %tobool7.not, label %if.then8, label %return

if.then8:                                         ; preds = %if.end6
  %call9 = tail call fastcc ptr @bdrv_snapshot_fallback(ptr noundef nonnull %bs.tr)
  %tobool10.not = icmp eq ptr %call9, null
  br i1 %tobool10.not, label %return, label %tailrecurse

return:                                           ; preds = %if.end6, %if.then8, %do.end, %lor.lhs.false, %lor.lhs.false3
  %retval.0 = phi i32 [ 0, %lor.lhs.false3 ], [ 0, %lor.lhs.false ], [ 0, %do.end ], [ 0, %if.then8 ], [ 1, %if.end6 ]
  ret i32 %retval.0
}